; Function Attrs: nounwind uwtable
define void @Sfm_ComputeInterpolantCheck(ptr noundef %0) local_unnamed_addr #0 {
  %2 = alloca i64, align 8
  call void @llvm.lifetime.start.p0(i64 8, ptr nonnull %2) #10
  %3 = tail call i32 @Sfm_NtkCreateWindow(ptr noundef %0, i32 noundef 3, i32 noundef 1) #10
  %4 = tail call i32 @Sfm_NtkWindowToSolver(ptr noundef %0)
  %5 = getelementptr inbounds nuw i8, ptr %0, i64 344
  %6 = load ptr, ptr %5, align 8, !tbaa !54
  %7 = getelementptr inbounds nuw i8, ptr %6, i64 4
  store i32 0, ptr %7, align 4, !tbaa !23
  %8 = getelementptr i8, ptr %0, i64 160
  %.val11 = load ptr, ptr %8, align 8, !tbaa !27
  %9 = getelementptr inbounds nuw i8, ptr %.val11, i64 24
  %10 = load i32, ptr %9, align 4, !tbaa !28
  %11 = load i32, ptr %6, align 8, !tbaa !34
  %12 = icmp eq i32 %11, 0
  %13 = getelementptr inbounds nuw i8, ptr %6, i64 8
  %14 = load ptr, ptr %13, align 8, !tbaa !27
  br i1 %12, label %15, label %Vec_IntPush.exit

15:                                               ; preds = %1
  %.not9.i.i = icmp eq ptr %14, null
  br i1 %.not9.i.i, label %18, label %16

16:                                               ; preds = %15
  %17 = tail call dereferenceable_or_null(64) ptr @realloc(ptr noundef nonnull %14, i64 noundef 64) #11
  %.pre.pre = load i32, ptr %7, align 4, !tbaa !23
  %.pre19.pre = load ptr, ptr %5, align 8, !tbaa !54
  br label %Vec_IntGrow.exit.i

18:                                               ; preds = %15
  %19 = tail call noalias dereferenceable_or_null(64) ptr @malloc(i64 noundef 64) #12
  br label %Vec_IntGrow.exit.i

Vec_IntGrow.exit.i:                               ; preds = %18, %16
  %.pre19 = phi ptr [ %.pre19.pre, %16 ], [ %6, %18 ]
  %.pre = phi i32 [ %.pre.pre, %16 ], [ 0, %18 ]
  %20 = phi ptr [ %17, %16 ], [ %19, %18 ]
  store ptr %20, ptr %13, align 8, !tbaa !27
  store i32 16, ptr %6, align 8, !tbaa !34
  %.val.pre = load ptr, ptr %8, align 8, !tbaa !27
  br label %Vec_IntPush.exit

Vec_IntPush.exit:                                 ; preds = %1, %Vec_IntGrow.exit.i
  %.val = phi ptr [ %.val.pre, %Vec_IntGrow.exit.i ], [ %.val11, %1 ]
  %21 = phi ptr [ %.pre19, %Vec_IntGrow.exit.i ], [ %6, %1 ]
  %22 = phi i32 [ %.pre, %Vec_IntGrow.exit.i ], [ 0, %1 ]
  %23 = phi ptr [ %20, %Vec_IntGrow.exit.i ], [ %14, %1 ]
  %24 = add nsw i32 %22, 1
  store i32 %24, ptr %7, align 4, !tbaa !23
  %25 = sext i32 %22 to i64
  %26 = getelementptr inbounds i32, ptr %23, i64 %25
  store i32 %10, ptr %26, align 4, !tbaa !28
  %27 = getelementptr inbounds nuw i8, ptr %.val, i64 28
  %28 = load i32, ptr %27, align 4, !tbaa !28
  %29 = getelementptr inbounds nuw i8, ptr %21, i64 4
  %30 = load i32, ptr %29, align 4, !tbaa !23
  %31 = load i32, ptr %21, align 8, !tbaa !34
  %32 = icmp eq i32 %30, %31
  br i1 %32, label %33, label %.Vec_IntGrow.exit10_crit_edge.i12

.Vec_IntGrow.exit10_crit_edge.i12:                ; preds = %Vec_IntPush.exit
  %.phi.trans.insert.i13 = getelementptr inbounds nuw i8, ptr %21, i64 8
  %.pre.i14 = load ptr, ptr %.phi.trans.insert.i13, align 8, !tbaa !27
  br label %Vec_IntPush.exit18

33:                                               ; preds = %Vec_IntPush.exit
  %34 = icmp slt i32 %30, 16
  br i1 %34, label %35, label %43

35:                                               ; preds = %33
  %36 = getelementptr inbounds nuw i8, ptr %21, i64 8
  %37 = load ptr, ptr %36, align 8, !tbaa !27
  %.not9.i.i16 = icmp eq ptr %37, null
  br i1 %.not9.i.i16, label %40, label %38

38:                                               ; preds = %35
  %39 = tail call dereferenceable_or_null(64) ptr @realloc(ptr noundef nonnull %37, i64 noundef 64) #11
  br label %Vec_IntGrow.exit.i17

40:                                               ; preds = %35
  %41 = tail call noalias dereferenceable_or_null(64) ptr @malloc(i64 noundef 64) #12
  br label %Vec_IntGrow.exit.i17

Vec_IntGrow.exit.i17:                             ; preds = %40, %38
  %42 = phi ptr [ %39, %38 ], [ %41, %40 ]
  store ptr %42, ptr %36, align 8, !tbaa !27
  store i32 16, ptr %21, align 8, !tbaa !34
  br label %Vec_IntPush.exit18

43:                                               ; preds = %33
  %44 = shl nuw nsw i32 %30, 1
  %45 = getelementptr inbounds nuw i8, ptr %21, i64 8
  %46 = load ptr, ptr %45, align 8, !tbaa !27
  %.not9.i9.i15 = icmp eq ptr %46, null
  %47 = zext nneg i32 %44 to i64
  %48 = shl nuw nsw i64 %47, 2
  br i1 %.not9.i9.i15, label %51, label %49

49:                                               ; preds = %43
  %50 = tail call ptr @realloc(ptr noundef nonnull %46, i64 noundef %48) #11
  br label %53

51:                                               ; preds = %43
  %52 = tail call noalias ptr @malloc(i64 noundef %48) #12
  br label %53

53:                                               ; preds = %51, %49
  %54 = phi ptr [ %50, %49 ], [ %52, %51 ]
  store ptr %54, ptr %45, align 8, !tbaa !27
  store i32 %44, ptr %21, align 8, !tbaa !34
  br label %Vec_IntPush.exit18

Vec_IntPush.exit18:                               ; preds = %.Vec_IntGrow.exit10_crit_edge.i12, %Vec_IntGrow.exit.i17, %53
  %55 = phi ptr [ %.pre.i14, %.Vec_IntGrow.exit10_crit_edge.i12 ], [ %54, %53 ], [ %42, %Vec_IntGrow.exit.i17 ]
  %56 = load i32, ptr %29, align 4, !tbaa !23
  %57 = add nsw i32 %56, 1
  store i32 %57, ptr %29, align 4, !tbaa !23
  %58 = sext i32 %56 to i64
  %59 = getelementptr inbounds i32, ptr %55, i64 %58
  store i32 %28, ptr %59, align 4, !tbaa !28
  %60 = tail call i64 @Sfm_ComputeInterpolant(ptr noundef nonnull %0)
  store i64 %60, ptr %2, align 8, !tbaa !55
  switch i64 %60, label %63 [
    i64 -8690466094656961759, label %61
    i64 1311768465173141112, label %62
  ]

61:                                               ; preds = %Vec_IntPush.exit18
  %puts10 = tail call i32 @puts(ptr nonnull dereferenceable(1) @str.1)
  br label %64

62:                                               ; preds = %Vec_IntPush.exit18
  %puts = tail call i32 @puts(ptr nonnull dereferenceable(1) @str)
  br label %64

63:                                               ; preds = %Vec_IntPush.exit18
  call void @Kit_DsdPrintFromTruth(ptr noundef nonnull %2, i32 noundef 2) #10
  %putchar = call i32 @putchar(i32 10)
  br label %64

64:                                               ; preds = %62, %63, %61
  call void @llvm.lifetime.end.p0(i64 8, ptr nonnull %2) #10
  ret void
}